; ModuleID = '54/96.c'
source_filename = "54/96.c"
target datalayout = "e-m:e-p270:32:32-p271:32:32-p272:64:64-i64:64-f80:128-n8:16:32:64-S128"
target triple = "x86_64-pc-linux-gnu"

@.str = private unnamed_addr constant [6 x i8] c"%d %d\00", align 1
@.str.1 = private unnamed_addr constant [3 x i8] c"%d\00", align 1

; Function Attrs: noinline nounwind uwtable
define dso_local void @main() #0 {
  %1 = alloca i32, align 4
  %2 = alloca i32, align 4
  %3 = alloca i32, align 4
  %4 = alloca i32, align 4
  %5 = alloca i32, align 4
  %6 = alloca i64, align 8
  store i32 0, i32* %5, align 4
  %7 = call i32 (i8*, ...) @__isoc99_scanf(i8* getelementptr inbounds ([6 x i8], [6 x i8]* @.str, i64 0, i64 0), i32* %1, i32* %2)
  store i64 1, i64* %6, align 8
  br label %8

8:                                                ; preds = %54, %0
  %9 = load i64, i64* %6, align 8
  %10 = icmp sle i64 %9, 999999999
  br i1 %10, label %11, label %57

11:                                               ; preds = %8
  %12 = load i64, i64* %6, align 8
  %13 = trunc i64 %12 to i32
  store i32 %13, i32* %4, align 4
  %14 = load i32, i32* %1, align 4
  store i32 %14, i32* %3, align 4
  br label %15

15:                                               ; preds = %34, %11
  %16 = load i32, i32* %3, align 4
  %17 = icmp sgt i32 %16, 0
  br i1 %17, label %18, label %35

18:                                               ; preds = %15
  %19 = load i32, i32* %4, align 4
  %20 = load i32, i32* %1, align 4
  %21 = srem i32 %19, %20
  %22 = load i32, i32* %2, align 4
  %23 = icmp eq i32 %21, %22
  br i1 %23, label %24, label %33

24:                                               ; preds = %18
  %25 = load i32, i32* %4, align 4
  %26 = load i32, i32* %1, align 4
  %27 = sdiv i32 %25, %26
  %28 = load i32, i32* %1, align 4
  %29 = sub nsw i32 %28, 1
  %30 = mul nsw i32 %27, %29
  store i32 %30, i32* %4, align 4
  %31 = load i32, i32* %3, align 4
  %32 = add nsw i32 %31, -1
  store i32 %32, i32* %3, align 4
  br label %34

33:                                               ; preds = %18
  br label %35

34:                                               ; preds = %24
  br label %15

35:                                               ; preds = %33, %15
  %36 = load i32, i32* %3, align 4
  %37 = icmp eq i32 %36, 0
  br i1 %37, label %38, label %49

38:                                               ; preds = %35
  %39 = load i32, i32* %4, align 4
  %40 = load i32, i32* %1, align 4
  %41 = sub nsw i32 %40, 1
  %42 = sdiv i32 %39, %41
  %43 = icmp sge i32 %42, 1
  br i1 %43, label %44, label %49

44:                                               ; preds = %38
  %45 = load i64, i64* %6, align 8
  %46 = call i32 (i8*, ...) @printf(i8* getelementptr inbounds ([3 x i8], [3 x i8]* @.str.1, i64 0, i64 0), i64 %45)
  %47 = load i32, i32* %5, align 4
  %48 = add nsw i32 %47, 1
  store i32 %48, i32* %5, align 4
  br label %49

49:                                               ; preds = %44, %38, %35
  %50 = load i32, i32* %5, align 4
  %51 = icmp eq i32 %50, 1
  br i1 %51, label %52, label %53

52:                                               ; preds = %49
  br label %57

53:                                               ; preds = %49
  br label %54

54:                                               ; preds = %53
  %55 = load i64, i64* %6, align 8
  %56 = add nsw i64 %55, 1
  store i64 %56, i64* %6, align 8
  br label %8

57:                                               ; preds = %52, %8
  ret void
}

declare dso_local i32 @__isoc99_scanf(i8*, ...) #1

declare dso_local i32 @printf(i8*, ...) #1


!llvm.module.flags = !{!0}
!llvm.ident = !{!1}

!0 = !{i32 1, !"wchar_size", i32 4}
!1 = !{!"clang version 10.0.0-4ubuntu1 "}
